(iconfig
Flavor
p0
(dp1
S'mem'
p2
S'1'
p3
sS'name'
p4
S'small'
p5
sS'numDisks'
p6
g3
sS'numVcpus'
p7
g3
sb.(iconfig
Flavor
p0
(dp1
S'mem'
p2
S'8'
p3
sS'name'
p4
S'medium'
p5
sS'numDisks'
p6
S'2'
p7
sS'numVcpus'
p8
S'4'
p9
sb.(iconfig
Flavor
p0
(dp1
S'mem'
p2
S'16'
p3
sS'name'
p4
S'large'
p5
sS'numDisks'
p6
S'2'
p7
sS'numVcpus'
p8
S'4'
p9
sb.(iconfig
Flavor
p0
(dp1
S'mem'
p2
S'32'
p3
sS'name'
p4
S'xlarge'
p5
sS'numDisks'
p6
S'4'
p7
sS'numVcpus'
p8
S'8'
p9
sb.