(iconfig
Machine
p0
(dp1
S'name'
p2
S'm2'
p3
sS'mem'
p4
S'16'
p5
sS'ip'
p6
S'128.0.0.2'
p7
sS'numVcpus'
p8
S'4'
p9
sS'numDisks'
p10
S'32'
p11
sS'rack'
p12
S'r1'
p13
sb.(iconfig
Machine
p0
(dp1
S'name'
p2
S'm3'
p3
sS'mem'
p4
S'16'
p5
sS'ip'
p6
S'128.0.0.3'
p7
sS'numVcpus'
p8
S'4'
p9
sS'numDisks'
p10
S'16'
p11
sS'rack'
p12
S'r1'
p13
sb.(iconfig
Machine
p0
(dp1
S'name'
p2
S'm4'
p3
sS'mem'
p4
S'16'
p5
sS'ip'
p6
S'128.0.0.4'
p7
sS'numVcpus'
p8
S'4'
p9
sS'numDisks'
p10
S'8'
p11
sS'rack'
p12
S'r1'
p13
sb.(iconfig
Machine
p0
(dp1
S'name'
p2
S'k1'
p3
sS'mem'
p4
S'32'
p5
sS'ip'
p6
S'128.1.1.0'
p7
sS'numVcpus'
p8
S'8'
p9
sS'numDisks'
p10
S'32'
p11
sS'rack'
p12
S'r1'
p13
sb.(iconfig
Machine
p0
(dp1
S'name'
p2
S'k2'
p3
sS'mem'
p4
S'32'
p5
sS'ip'
p6
S'128.1.0.2'
p7
sS'numVcpus'
p8
S'8'
p9
sS'numDisks'
p10
S'32'
p11
sS'rack'
p12
S'r1'
p13
sb.(iconfig
Machine
p0
(dp1
S'name'
p2
S'k3'
p3
sS'mem'
p4
S'32'
p5
sS'ip'
p6
S'128.1.3.0'
p7
sS'numVcpus'
p8
S'8'
p9
sS'numDisks'
p10
S'32'
p11
sS'rack'
p12
S'r1'
p13
sb.(iconfig
Machine
p0
(dp1
S'name'
p2
S'calvin'
p3
sS'mem'
p4
S'8'
p5
sS'ip'
p6
S'128.129.4.4'
p7
sS'numVcpus'
p8
S'1'
p9
sS'numDisks'
p10
S'16'
p11
sS'rack'
p12
S'r1'
p13
sb.(iconfig
Machine
p0
(dp1
S'name'
p2
S'hobbes'
p3
sS'mem'
p4
S'16'
p5
sS'ip'
p6
S'1.1.1.1'
p7
sS'numVcpus'
p8
S'16'
p9
sS'numDisks'
p10
S'64'
p11
sS'rack'
p12
S'r1'
p13
sb.(iconfig
Machine
p0
(dp1
S'name'
p2
S'dora'
p3
sS'mem'
p4
S'64'
p5
sS'ip'
p6
S'1.1.1.2'
p7
sS'numVcpus'
p8
S'16'
p9
sS'numDisks'
p10
S'256'
p11
sS'rack'
p12
S'r1'
p13
sb.(iconfig
Machine
p0
(dp1
S'name'
p2
Vmytest
p3
sS'mem'
p4
V12
p5
sS'ip'
p6
V1.1.1.1
p7
sS'numVcpus'
p8
V12
p9
sS'numDisks'
p10
V12
p11
sS'rack'
p12
Vr1
p13
sb.