(iconfig
Image
p0
(dp1
S'path'
p2
S'/images/linux-ubuntu-v1.0.img'
p3
sS'name'
p4
S'linux-ubuntu'
p5
sS'size'
p6
S'128'
p7
sb.(iconfig
Image
p0
(dp1
S'path'
p2
S'/images/old-image.img'
p3
sS'name'
p4
S'linux-sles'
p5
sS'size'
p6
S'512'
p7
sb.(iconfig
Image
p0
(dp1
S'path'
p2
S'/images/linux-ubuntu-16.img'
p3
sS'name'
p4
S'linux-ubuntu-16'
p5
sS'size'
p6
S'2048'
p7
sb.